
/home/docker/workspace/EE219-ICS/projects/proj/sw/build/demov-riscv64-mycpu.elf:     file format elf64-littleriscv


Disassembly of section .text:

0000000080000000 <_start>:
    80000000:	00000413          	li	s0,0
    80000004:	00009117          	auipc	sp,0x9
    80000008:	ffc10113          	addi	sp,sp,-4 # 80009000 <_end>
    8000000c:	210000ef          	jal	ra,8000021c <_trm_init>

0000000080000010 <main>:
    80000010:	0404e7b7          	lui	a5,0x404e
    80000014:	69178793          	addi	a5,a5,1681 # 404e691 <_entry_offset+0x404e691>
    80000018:	00579793          	slli	a5,a5,0x5
    8000001c:	0007a783          	lw	a5,0(a5)
    80000020:	40429637          	lui	a2,0x40429
    80000024:	f3010113          	addi	sp,sp,-208
    80000028:	00161613          	slli	a2,a2,0x1
    8000002c:	000025b7          	lui	a1,0x2
    80000030:	00f13c23          	sd	a5,24(sp)
    80000034:	60060793          	addi	a5,a2,1536 # 40429600 <_entry_offset+0x40429600>
    80000038:	02f13423          	sd	a5,40(sp)
    8000003c:	4c058793          	addi	a5,a1,1216 # 24c0 <_entry_offset+0x24c0>
    80000040:	02f13823          	sd	a5,48(sp)
    80000044:	001587b7          	lui	a5,0x158
    80000048:	62878793          	addi	a5,a5,1576 # 158628 <_entry_offset+0x158628>
    8000004c:	04f13423          	sd	a5,72(sp)
    80000050:	1010e7b7          	lui	a5,0x1010e
    80000054:	5fb78793          	addi	a5,a5,1531 # 1010e5fb <_entry_offset+0x1010e5fb>
    80000058:	00081737          	lui	a4,0x81
    8000005c:	02f13c23          	sd	a5,56(sp)
    80000060:	008097b7          	lui	a5,0x809
    80000064:	00879793          	slli	a5,a5,0x8
    80000068:	87370713          	addi	a4,a4,-1933 # 80873 <_entry_offset+0x80873>
    8000006c:	07913c23          	sd	s9,120(sp)
    80000070:	04f13023          	sd	a5,64(sp)
    80000074:	0000ecb7          	lui	s9,0xe
    80000078:	00c71793          	slli	a5,a4,0xc
    8000007c:	00f13423          	sd	a5,8(sp)
    80000080:	5b0c8793          	addi	a5,s9,1456 # e5b0 <_entry_offset+0xe5b0>
    80000084:	02f13023          	sd	a5,32(sp)
    80000088:	88058793          	addi	a5,a1,-1920
    8000008c:	04f13823          	sd	a5,80(sp)
    80000090:	000057b7          	lui	a5,0x5
    80000094:	0b413023          	sd	s4,160(sp)
    80000098:	98078793          	addi	a5,a5,-1664 # 4980 <_entry_offset+0x4980>
    8000009c:	20273a37          	lui	s4,0x20273
    800000a0:	0b313423          	sd	s3,168(sp)
    800000a4:	07a13823          	sd	s10,112(sp)
    800000a8:	07b13423          	sd	s11,104(sp)
    800000ac:	0c113423          	sd	ra,200(sp)
    800000b0:	0c813023          	sd	s0,192(sp)
    800000b4:	0a913c23          	sd	s1,184(sp)
    800000b8:	0b213823          	sd	s2,176(sp)
    800000bc:	09513c23          	sd	s5,152(sp)
    800000c0:	09613823          	sd	s6,144(sp)
    800000c4:	09713423          	sd	s7,136(sp)
    800000c8:	09813023          	sd	s8,128(sp)
    800000cc:	00008d13          	mv	s10,ra
    800000d0:	00010d93          	mv	s11,sp
    800000d4:	00000993          	li	s3,0
    800000d8:	002a1a13          	slli	s4,s4,0x2
    800000dc:	04f13c23          	sd	a5,88(sp)
    800000e0:	04813783          	ld	a5,72(sp)
    800000e4:	04013483          	ld	s1,64(sp)
    800000e8:	02813c03          	ld	s8,40(sp)
    800000ec:	00f98933          	add	s2,s3,a5
    800000f0:	03813783          	ld	a5,56(sp)
    800000f4:	04848c93          	addi	s9,s1,72
    800000f8:	00013823          	sd	zero,16(sp)
    800000fc:	00379b93          	slli	s7,a5,0x3
    80000100:	00000413          	li	s0,0
    80000104:	00048713          	mv	a4,s1
    80000108:	000b8793          	mv	a5,s7
    8000010c:	0207ed07          	0x207ed07
    80000110:	00f905b3          	add	a1,s2,a5
    80000114:	0205ed87          	0x205ed87
    80000118:	d1bd0057          	0xd1bd0057
    8000011c:	20000d57          	0x20000d57
    80000120:	02076d27          	0x2076d27
    80000124:	00870713          	addi	a4,a4,8
    80000128:	04078793          	addi	a5,a5,64
    8000012c:	feec90e3          	bne	s9,a4,8000010c <main+0xfc>
    80000130:	00000b13          	li	s6,0
    80000134:	00000a93          	li	s5,0
    80000138:	00813783          	ld	a5,8(sp)
    8000013c:	01640533          	add	a0,s0,s6
    80000140:	016985b3          	add	a1,s3,s6
    80000144:	00a78533          	add	a0,a5,a0
    80000148:	00ba05b3          	add	a1,s4,a1
    8000014c:	8405b583          	ld	a1,-1984(a1)
    80000150:	fc053503          	ld	a0,-64(a0)
    80000154:	008b0b13          	addi	s6,s6,8
    80000158:	0e4000ef          	jal	ra,8000023c <__muldi3>
    8000015c:	01800793          	li	a5,24
    80000160:	00aa8ab3          	add	s5,s5,a0
    80000164:	fcfb1ae3          	bne	s6,a5,80000138 <main+0x128>
    80000168:	00048793          	mv	a5,s1
    8000016c:	0007b583          	ld	a1,0(a5)
    80000170:	00878793          	addi	a5,a5,8
    80000174:	00ba8ab3          	add	s5,s5,a1
    80000178:	fefc9ae3          	bne	s9,a5,8000016c <main+0x15c>
    8000017c:	01813783          	ld	a5,24(sp)
    80000180:	008c0c13          	addi	s8,s8,8
    80000184:	25848493          	addi	s1,s1,600
    80000188:	40fad733          	sra	a4,s5,a5
    8000018c:	01013783          	ld	a5,16(sp)
    80000190:	feec3c23          	sd	a4,-8(s8)
    80000194:	02013703          	ld	a4,32(sp)
    80000198:	04b7879b          	addiw	a5,a5,75
    8000019c:	00f13823          	sd	a5,16(sp)
    800001a0:	25840413          	addi	s0,s0,600
    800001a4:	258c8c93          	addi	s9,s9,600
    800001a8:	258b8b93          	addi	s7,s7,600
    800001ac:	da890913          	addi	s2,s2,-600
    800001b0:	f4e79ae3          	bne	a5,a4,80000104 <main+0xf4>
    800001b4:	02813703          	ld	a4,40(sp)
    800001b8:	05013683          	ld	a3,80(sp)
    800001bc:	03013783          	ld	a5,48(sp)
    800001c0:	25898993          	addi	s3,s3,600
    800001c4:	00d70733          	add	a4,a4,a3
    800001c8:	02e13423          	sd	a4,40(sp)
    800001cc:	05813703          	ld	a4,88(sp)
    800001d0:	3107879b          	addiw	a5,a5,784
    800001d4:	02f13823          	sd	a5,48(sp)
    800001d8:	f0e794e3          	bne	a5,a4,800000e0 <main+0xd0>
    800001dc:	0c813083          	ld	ra,200(sp)
    800001e0:	0c013403          	ld	s0,192(sp)
    800001e4:	0b813483          	ld	s1,184(sp)
    800001e8:	0b013903          	ld	s2,176(sp)
    800001ec:	0a813983          	ld	s3,168(sp)
    800001f0:	0a013a03          	ld	s4,160(sp)
    800001f4:	09813a83          	ld	s5,152(sp)
    800001f8:	09013b03          	ld	s6,144(sp)
    800001fc:	08813b83          	ld	s7,136(sp)
    80000200:	08013c03          	ld	s8,128(sp)
    80000204:	07813c83          	ld	s9,120(sp)
    80000208:	07013d03          	ld	s10,112(sp)
    8000020c:	06813d83          	ld	s11,104(sp)
    80000210:	00000513          	li	a0,0
    80000214:	0d010113          	addi	sp,sp,208
    80000218:	00008067          	ret

000000008000021c <_trm_init>:
    8000021c:	ff010113          	addi	sp,sp,-16
    80000220:	00000517          	auipc	a0,0x0
    80000224:	04050513          	addi	a0,a0,64 # 80000260 <_etext>
    80000228:	00113423          	sd	ra,8(sp)
    8000022c:	de5ff0ef          	jal	ra,80000010 <main>
    80000230:	00050513          	mv	a0,a0
    80000234:	0000006b          	0x6b
    80000238:	0000006f          	j	80000238 <_trm_init+0x1c>

000000008000023c <__muldi3>:
    8000023c:	00050613          	mv	a2,a0
    80000240:	00000513          	li	a0,0
    80000244:	0015f693          	andi	a3,a1,1
    80000248:	00068463          	beqz	a3,80000250 <__muldi3+0x14>
    8000024c:	00c50533          	add	a0,a0,a2
    80000250:	0015d593          	srli	a1,a1,0x1
    80000254:	00161613          	slli	a2,a2,0x1
    80000258:	fe0596e3          	bnez	a1,80000244 <__muldi3+0x8>
    8000025c:	00008067          	ret
